target datalayout = "e-m:e-p270:32:32-p271:32:32-p272:64:64-i64:64-i128:128-f80:128-n8:16:32:64-S128"
target triple = "x86_64-pc-linux-gnu"

%struct.ParseState = type { ptr, ptr, i32, i32, ptr, ptr, ptr, ptr, ptr, ptr, i8, ptr, ptr, ptr, ptr, ptr, ptr, i8, ptr, i32, i32, ptr, ptr, i8, i8, ptr, i8, i8, i8, i8, i8, ptr, ptr, ptr, ptr, ptr, ptr }
%struct.List = type { i32, i32, i32, ptr, [0 x %union.ListCell] }
%union.ListCell = type { ptr }
%struct.RangeTblEntry = type { i32, ptr, ptr, i32, i32, i8, i8, i32, i32, ptr, ptr, i8, i32, i32, ptr, ptr, ptr, ptr, ptr, i8, ptr, ptr, ptr, i32, i8, ptr, ptr, ptr, ptr, double, ptr, i8, i8, ptr }
%struct.Alias = type { i32, ptr, ptr }
%struct.Node = type { i32 }

@.str.1 = private unnamed_addr constant [17 x i8] c"parse_relation.c\00", align 1
@.str.30 = private unnamed_addr constant [9 x i8] c"*VALUES*\00", align 1
@.str.31 = private unnamed_addr constant [9 x i8] c"column%d\00", align 1
@.str.32 = private unnamed_addr constant [69 x i8] c"VALUES lists \22%s\22 have %d columns available but %d columns specified\00", align 1
@__func__.addRangeTableEntryForValues = private unnamed_addr constant [28 x i8] c"addRangeTableEntryForValues\00", align 1

; Function Attrs: inlinehint nounwind uwtable
define internal i32 @list_length(ptr noundef %0) #6 {
  %2 = alloca ptr, align 8
  store ptr %0, ptr %2, align 8
  %3 = load ptr, ptr %2, align 8
  %4 = icmp ne ptr %3, null
  br i1 %4, label %5, label %9

5:                                                ; preds = %1
  %6 = load ptr, ptr %2, align 8
  %7 = getelementptr inbounds nuw %struct.List, ptr %6, i32 0, i32 1
  %8 = load i32, ptr %7, align 4
  br label %10

9:                                                ; preds = %1
  br label %10

10:                                               ; preds = %9, %5
  %11 = phi i32 [ %8, %5 ], [ 0, %9 ]
  ret i32 %11
}

; Function Attrs: inlinehint nounwind uwtable
define internal ptr @list_nth_cell(ptr noundef %0, i32 noundef %1) #6 {
  %3 = alloca ptr, align 8
  %4 = alloca i32, align 4
  store ptr %0, ptr %3, align 8
  store i32 %1, ptr %4, align 4
  %5 = load ptr, ptr %3, align 8
  %6 = getelementptr inbounds nuw %struct.List, ptr %5, i32 0, i32 3
  %7 = load ptr, ptr %6, align 8
  %8 = load i32, ptr %4, align 4
  %9 = sext i32 %8 to i64
  %10 = getelementptr inbounds %union.ListCell, ptr %7, i64 %9
  ret ptr %10
}

; Function Attrs: inlinehint nounwind uwtable
define internal ptr @newNode(i64 noundef %0, i32 noundef %1) #6 {
  %3 = alloca i64, align 8
  %4 = alloca i32, align 4
  %5 = alloca ptr, align 8
  store i64 %0, ptr %3, align 8
  store i32 %1, ptr %4, align 4
  call void @llvm.lifetime.start.p0(i64 8, ptr %5) #8
  %6 = load i64, ptr %3, align 8
  %7 = call ptr @palloc0(i64 noundef %6)
  store ptr %7, ptr %5, align 8
  %8 = load i32, ptr %4, align 4
  %9 = load ptr, ptr %5, align 8
  %10 = getelementptr inbounds nuw %struct.Node, ptr %9, i32 0, i32 0
  store i32 %8, ptr %10, align 4
  %11 = load ptr, ptr %5, align 8
  call void @llvm.lifetime.end.p0(i64 8, ptr %5) #8
  ret ptr %11
}

; Function Attrs: nounwind uwtable
define dso_local ptr @addRangeTableEntryForValues(ptr noundef %0, ptr noundef %1, ptr noundef %2, ptr noundef %3, ptr noundef %4, ptr noundef %5, i1 noundef zeroext %6, i1 noundef zeroext %7) #0 {
  %9 = alloca ptr, align 8
  %10 = alloca ptr, align 8
  %11 = alloca ptr, align 8
  %12 = alloca ptr, align 8
  %13 = alloca ptr, align 8
  %14 = alloca ptr, align 8
  %15 = alloca i8, align 1
  %16 = alloca i8, align 1
  %17 = alloca ptr, align 8
  %18 = alloca ptr, align 8
  %19 = alloca ptr, align 8
  %20 = alloca i32, align 4
  %21 = alloca i32, align 4
  %22 = alloca [64 x i8], align 16
  store ptr %0, ptr %9, align 8
  store ptr %1, ptr %10, align 8
  store ptr %2, ptr %11, align 8
  store ptr %3, ptr %12, align 8
  store ptr %4, ptr %13, align 8
  store ptr %5, ptr %14, align 8
  %23 = zext i1 %6 to i8
  store i8 %23, ptr %15, align 1
  %24 = zext i1 %7 to i8
  store i8 %24, ptr %16, align 1
  call void @llvm.lifetime.start.p0(i64 8, ptr %17) #8
  %25 = call ptr @newNode(i64 noundef 224, i32 noundef 101)
  store ptr %25, ptr %17, align 8
  call void @llvm.lifetime.start.p0(i64 8, ptr %18) #8
  %26 = load ptr, ptr %14, align 8
  %27 = icmp ne ptr %26, null
  br i1 %27, label %28, label %32

28:                                               ; preds = %8
  %29 = load ptr, ptr %14, align 8
  %30 = getelementptr inbounds nuw %struct.Alias, ptr %29, i32 0, i32 1
  %31 = load ptr, ptr %30, align 8
  br label %34

32:                                               ; preds = %8
  %33 = call ptr @pstrdup(ptr noundef @.str.30)
  br label %34

34:                                               ; preds = %32, %28
  %35 = phi ptr [ %31, %28 ], [ %33, %32 ]
  store ptr %35, ptr %18, align 8
  call void @llvm.lifetime.start.p0(i64 8, ptr %19) #8
  call void @llvm.lifetime.start.p0(i64 4, ptr %20) #8
  call void @llvm.lifetime.start.p0(i64 4, ptr %21) #8
  %36 = load ptr, ptr %17, align 8
  %37 = getelementptr inbounds nuw %struct.RangeTblEntry, ptr %36, i32 0, i32 3
  store i32 5, ptr %37, align 8
  %38 = load ptr, ptr %17, align 8
  %39 = getelementptr inbounds nuw %struct.RangeTblEntry, ptr %38, i32 0, i32 4
  store i32 0, ptr %39, align 4
  %40 = load ptr, ptr %17, align 8
  %41 = getelementptr inbounds nuw %struct.RangeTblEntry, ptr %40, i32 0, i32 10
  store ptr null, ptr %41, align 8
  %42 = load ptr, ptr %10, align 8
  %43 = load ptr, ptr %17, align 8
  %44 = getelementptr inbounds nuw %struct.RangeTblEntry, ptr %43, i32 0, i32 21
  store ptr %42, ptr %44, align 8
  %45 = load ptr, ptr %11, align 8
  %46 = load ptr, ptr %17, align 8
  %47 = getelementptr inbounds nuw %struct.RangeTblEntry, ptr %46, i32 0, i32 25
  store ptr %45, ptr %47, align 8
  %48 = load ptr, ptr %12, align 8
  %49 = load ptr, ptr %17, align 8
  %50 = getelementptr inbounds nuw %struct.RangeTblEntry, ptr %49, i32 0, i32 26
  store ptr %48, ptr %50, align 8
  %51 = load ptr, ptr %13, align 8
  %52 = load ptr, ptr %17, align 8
  %53 = getelementptr inbounds nuw %struct.RangeTblEntry, ptr %52, i32 0, i32 27
  store ptr %51, ptr %53, align 8
  %54 = load ptr, ptr %14, align 8
  %55 = load ptr, ptr %17, align 8
  %56 = getelementptr inbounds nuw %struct.RangeTblEntry, ptr %55, i32 0, i32 1
  store ptr %54, ptr %56, align 8
  %57 = load ptr, ptr %14, align 8
  %58 = icmp ne ptr %57, null
  br i1 %58, label %59, label %62

59:                                               ; preds = %34
  %60 = load ptr, ptr %14, align 8
  %61 = call ptr @copyObjectImpl(ptr noundef %60)
  br label %65

62:                                               ; preds = %34
  %63 = load ptr, ptr %18, align 8
  %64 = call ptr @makeAlias(ptr noundef %63, ptr noundef null)
  br label %65

65:                                               ; preds = %62, %59
  %66 = phi ptr [ %61, %59 ], [ %64, %62 ]
  store ptr %66, ptr %19, align 8
  %67 = load ptr, ptr %10, align 8
  %68 = call ptr @list_nth_cell(ptr noundef %67, i32 noundef 0)
  %69 = load ptr, ptr %68, align 8
  %70 = call i32 @list_length(ptr noundef %69)
  store i32 %70, ptr %21, align 4
  %71 = load ptr, ptr %19, align 8
  %72 = getelementptr inbounds nuw %struct.Alias, ptr %71, i32 0, i32 2
  %73 = load ptr, ptr %72, align 8
  %74 = call i32 @list_length(ptr noundef %73)
  store i32 %74, ptr %20, align 4
  br label %75

75:                                               ; preds = %79, %65
  %76 = load i32, ptr %20, align 4
  %77 = load i32, ptr %21, align 4
  %78 = icmp slt i32 %76, %77
  br i1 %78, label %79, label %94

79:                                               ; preds = %75
  call void @llvm.lifetime.start.p0(i64 64, ptr %22) #8
  %80 = load i32, ptr %20, align 4
  %81 = add i32 %80, 1
  store i32 %81, ptr %20, align 4
  %82 = getelementptr inbounds [64 x i8], ptr %22, i64 0, i64 0
  %83 = load i32, ptr %20, align 4
  %84 = call i32 (ptr, i64, ptr, ...) @pg_snprintf(ptr noundef %82, i64 noundef 64, ptr noundef @.str.31, i32 noundef %83)
  %85 = load ptr, ptr %19, align 8
  %86 = getelementptr inbounds nuw %struct.Alias, ptr %85, i32 0, i32 2
  %87 = load ptr, ptr %86, align 8
  %88 = getelementptr inbounds [64 x i8], ptr %22, i64 0, i64 0
  %89 = call ptr @pstrdup(ptr noundef %88)
  %90 = call ptr @makeString(ptr noundef %89)
  %91 = call ptr @lappend(ptr noundef %87, ptr noundef %90)
  %92 = load ptr, ptr %19, align 8
  %93 = getelementptr inbounds nuw %struct.Alias, ptr %92, i32 0, i32 2
  store ptr %91, ptr %93, align 8
  call void @llvm.lifetime.end.p0(i64 64, ptr %22) #8
  br label %75, !llvm.loop !36

94:                                               ; preds = %75
  %95 = load i32, ptr %21, align 4
  %96 = load i32, ptr %20, align 4
  %97 = icmp slt i32 %95, %96
  br i1 %97, label %98, label %113

98:                                               ; preds = %94
  br label %99

99:                                               ; preds = %98
  br i1 true, label %100, label %102

100:                                              ; preds = %99
  %101 = call zeroext i1 @errstart_cold(i32 noundef 21, ptr noundef null) #9
  br i1 %101, label %104, label %110

102:                                              ; preds = %99
  %103 = call zeroext i1 @errstart(i32 noundef 21, ptr noundef null)
  br i1 %103, label %104, label %110

104:                                              ; preds = %102, %100
  %105 = call i32 @errcode(i32 noundef 393348)
  %106 = load ptr, ptr %18, align 8
  %107 = load i32, ptr %21, align 4
  %108 = load i32, ptr %20, align 4
  %109 = call i32 (ptr, ...) @errmsg(ptr noundef @.str.32, ptr noundef %106, i32 noundef %107, i32 noundef %108)
  call void @errfinish(ptr noundef @.str.1, i32 noundef 2195, ptr noundef @__func__.addRangeTableEntryForValues)
  br label %110

110:                                              ; preds = %104, %102, %100
  unreachable

111:                                              ; No predecessors!
  br label %112

112:                                              ; preds = %111
  br label %113

113:                                              ; preds = %112, %94
  %114 = load ptr, ptr %19, align 8
  %115 = load ptr, ptr %17, align 8
  %116 = getelementptr inbounds nuw %struct.RangeTblEntry, ptr %115, i32 0, i32 2
  store ptr %114, ptr %116, align 8
  %117 = load i8, ptr %15, align 1, !range !6, !noundef !7
  %118 = trunc i8 %117 to i1
  %119 = load ptr, ptr %17, align 8
  %120 = getelementptr inbounds nuw %struct.RangeTblEntry, ptr %119, i32 0, i32 31
  %121 = zext i1 %118 to i8
  store i8 %121, ptr %120, align 8
  %122 = load i8, ptr %16, align 1, !range !6, !noundef !7
  %123 = trunc i8 %122 to i1
  %124 = load ptr, ptr %17, align 8
  %125 = getelementptr inbounds nuw %struct.RangeTblEntry, ptr %124, i32 0, i32 32
  %126 = zext i1 %123 to i8
  store i8 %126, ptr %125, align 1
  %127 = load ptr, ptr %9, align 8
  %128 = getelementptr inbounds nuw %struct.ParseState, ptr %127, i32 0, i32 4
  %129 = load ptr, ptr %128, align 8
  %130 = load ptr, ptr %17, align 8
  %131 = call ptr @lappend(ptr noundef %129, ptr noundef %130)
  %132 = load ptr, ptr %9, align 8
  %133 = getelementptr inbounds nuw %struct.ParseState, ptr %132, i32 0, i32 4
  store ptr %131, ptr %133, align 8
  %134 = load ptr, ptr %17, align 8
  %135 = load ptr, ptr %9, align 8
  %136 = getelementptr inbounds nuw %struct.ParseState, ptr %135, i32 0, i32 4
  %137 = load ptr, ptr %136, align 8
  %138 = call i32 @list_length(ptr noundef %137)
  %139 = load ptr, ptr %17, align 8
  %140 = getelementptr inbounds nuw %struct.RangeTblEntry, ptr %139, i32 0, i32 25
  %141 = load ptr, ptr %140, align 8
  %142 = load ptr, ptr %17, align 8
  %143 = getelementptr inbounds nuw %struct.RangeTblEntry, ptr %142, i32 0, i32 26
  %144 = load ptr, ptr %143, align 8
  %145 = load ptr, ptr %17, align 8
  %146 = getelementptr inbounds nuw %struct.RangeTblEntry, ptr %145, i32 0, i32 27
  %147 = load ptr, ptr %146, align 8
  %148 = call ptr @buildNSItemFromLists(ptr noundef %134, i32 noundef %138, ptr noundef %141, ptr noundef %144, ptr noundef %147)
  call void @llvm.lifetime.end.p0(i64 4, ptr %21) #8
  call void @llvm.lifetime.end.p0(i64 4, ptr %20) #8
  call void @llvm.lifetime.end.p0(i64 8, ptr %19) #8
  call void @llvm.lifetime.end.p0(i64 8, ptr %18) #8
  call void @llvm.lifetime.end.p0(i64 8, ptr %17) #8
  ret ptr %148
}