; Function Attrs: nounwind uwtable
define dso_local noundef ptr @addRangeTableEntryForValues(ptr noundef captures(none) %0, ptr noundef %1, ptr noundef %2, ptr noundef %3, ptr noundef %4, ptr noundef %5, i1 noundef zeroext %6, i1 noundef zeroext %7) local_unnamed_addr #0 {
  %9 = alloca [64 x i8], align 16
  %10 = tail call noundef ptr @palloc0(i64 noundef 224) #11
  store i32 101, ptr %10, align 4
  %.not = icmp eq ptr %5, null
  br i1 %.not, label %14, label %11

11:                                               ; preds = %8
  %12 = getelementptr inbounds nuw i8, ptr %5, i64 8
  %13 = load ptr, ptr %12, align 8
  br label %16

14:                                               ; preds = %8
  %15 = tail call ptr @pstrdup(ptr noundef nonnull @.str.30) #11
  br label %16

16:                                               ; preds = %14, %11
  %17 = phi ptr [ %13, %11 ], [ %15, %14 ]
  %18 = getelementptr inbounds nuw i8, ptr %10, i64 24
  store i32 5, ptr %18, align 8
  %19 = getelementptr inbounds nuw i8, ptr %10, i64 28
  store i32 0, ptr %19, align 4
  %20 = getelementptr inbounds nuw i8, ptr %10, i64 56
  store ptr null, ptr %20, align 8
  %21 = getelementptr inbounds nuw i8, ptr %10, i64 136
  store ptr %1, ptr %21, align 8
  %22 = getelementptr inbounds nuw i8, ptr %10, i64 160
  store ptr %2, ptr %22, align 8
  %23 = getelementptr inbounds nuw i8, ptr %10, i64 168
  store ptr %3, ptr %23, align 8
  %24 = getelementptr inbounds nuw i8, ptr %10, i64 176
  store ptr %4, ptr %24, align 8
  %25 = getelementptr inbounds nuw i8, ptr %10, i64 8
  store ptr %5, ptr %25, align 8
  br i1 %.not, label %28, label %26

26:                                               ; preds = %16
  %27 = tail call ptr @copyObjectImpl(ptr noundef nonnull %5) #11
  br label %30

28:                                               ; preds = %16
  %29 = tail call ptr @makeAlias(ptr noundef %17, ptr noundef null) #11
  br label %30

30:                                               ; preds = %28, %26
  %31 = phi ptr [ %27, %26 ], [ %29, %28 ]
  %32 = getelementptr i8, ptr %1, i64 16
  %.val = load ptr, ptr %32, align 8
  %33 = load ptr, ptr %.val, align 8
  %.not.i = icmp eq ptr %33, null
  br i1 %.not.i, label %list_length.exit, label %34

34:                                               ; preds = %30
  %35 = getelementptr inbounds nuw i8, ptr %33, i64 4
  %36 = load i32, ptr %35, align 4
  br label %list_length.exit

list_length.exit:                                 ; preds = %30, %34
  %37 = phi i32 [ %36, %34 ], [ 0, %30 ]
  %38 = getelementptr inbounds nuw i8, ptr %31, i64 16
  %39 = load ptr, ptr %38, align 8
  %.not.i46 = icmp eq ptr %39, null
  br i1 %.not.i46, label %list_length.exit47, label %40

40:                                               ; preds = %list_length.exit
  %41 = getelementptr inbounds nuw i8, ptr %39, i64 4
  %42 = load i32, ptr %41, align 4
  br label %list_length.exit47

list_length.exit47:                               ; preds = %list_length.exit, %40
  %43 = phi i32 [ %42, %40 ], [ 0, %list_length.exit ]
  %44 = icmp slt i32 %43, %37
  br i1 %44, label %.lr.ph, label %._crit_edge

.lr.ph:                                           ; preds = %list_length.exit47, %.lr.ph
  %.050 = phi i32 [ %45, %.lr.ph ], [ %43, %list_length.exit47 ]
  call void @llvm.lifetime.start.p0(i64 64, ptr nonnull %9) #11
  %45 = add nsw i32 %.050, 1
  %46 = call i32 (ptr, i64, ptr, ...) @pg_snprintf(ptr noundef nonnull %9, i64 noundef 64, ptr noundef nonnull @.str.31, i32 noundef %45) #11
  %47 = load ptr, ptr %38, align 8
  %48 = call ptr @pstrdup(ptr noundef nonnull %9) #11
  %49 = call ptr @makeString(ptr noundef %48) #11
  %50 = call ptr @lappend(ptr noundef %47, ptr noundef %49) #11
  store ptr %50, ptr %38, align 8
  call void @llvm.lifetime.end.p0(i64 64, ptr nonnull %9) #11
  %exitcond.not = icmp eq i32 %45, %37
  br i1 %exitcond.not, label %._crit_edge, label %.lr.ph, !llvm.loop !23

._crit_edge:                                      ; preds = %.lr.ph, %list_length.exit47
  %.0.lcssa = phi i32 [ %43, %list_length.exit47 ], [ %37, %.lr.ph ]
  %51 = icmp slt i32 %37, %.0.lcssa
  br i1 %51, label %52, label %56

52:                                               ; preds = %._crit_edge
  %53 = call zeroext i1 @errstart_cold(i32 noundef 21, ptr noundef null) #13
  call void @llvm.assume(i1 %53)
  %54 = call i32 @errcode(i32 noundef 393348) #11
  %55 = call i32 (ptr, ...) @errmsg(ptr noundef nonnull @.str.32, ptr noundef %17, i32 noundef %37, i32 noundef %.0.lcssa) #11
  call void @errfinish(ptr noundef nonnull @.str.1, i32 noundef 2195, ptr noundef nonnull @__func__.addRangeTableEntryForValues) #11
  unreachable

56:                                               ; preds = %._crit_edge
  %57 = zext i1 %7 to i8
  %58 = zext i1 %6 to i8
  %59 = getelementptr inbounds nuw i8, ptr %10, i64 16
  store ptr %31, ptr %59, align 8
  %60 = getelementptr inbounds nuw i8, ptr %10, i64 208
  store i8 %58, ptr %60, align 8
  %61 = getelementptr inbounds nuw i8, ptr %10, i64 209
  store i8 %57, ptr %61, align 1
  %62 = getelementptr inbounds nuw i8, ptr %0, i64 24
  %63 = load ptr, ptr %62, align 8
  %64 = call ptr @lappend(ptr noundef %63, ptr noundef nonnull %10) #11
  store ptr %64, ptr %62, align 8
  %.not.i48 = icmp eq ptr %64, null
  br i1 %.not.i48, label %list_length.exit49, label %65

65:                                               ; preds = %56
  %66 = getelementptr inbounds nuw i8, ptr %64, i64 4
  %67 = load i32, ptr %66, align 4
  br label %list_length.exit49

list_length.exit49:                               ; preds = %56, %65
  %68 = phi i32 [ %67, %65 ], [ 0, %56 ]
  %69 = load ptr, ptr %22, align 8
  %70 = load ptr, ptr %23, align 8
  %71 = load ptr, ptr %24, align 8
  %72 = call fastcc ptr @buildNSItemFromLists(ptr noundef nonnull %10, i32 noundef %68, ptr noundef %69, ptr noundef %70, ptr noundef %71)
  ret ptr %72
}